target datalayout = "e-m:e-p270:32:32-p271:32:32-p272:64:64-i64:64-i128:128-f80:128-n8:16:32:64-S128"
target triple = "x86_64-pc-linux-gnu"

%struct.sockaddr_storage = type { i16, [118 x i8], i64 }
%struct.forward = type { %struct.slurm_node_alias_addrs_t, i16, i16, ptr, i32, i16, i16 }
%struct.slurm_node_alias_addrs_t = type { i64, ptr, ptr, i32, ptr }
%struct.slurm_msg = type { %struct.sockaddr_storage, ptr, i32, i32, i32, i8, i32, i8, i32, ptr, ptr, i32, ptr, ptr, i16, i8, i16, i16, %struct.forward, ptr, %struct.sockaddr_storage, ptr }

; Function Attrs: nounwind uwtable
define dso_local i32 @slurm_send_recv_controller_rc_msg(ptr noundef %0, ptr noundef %1, ptr noundef %2) #0 {
  %4 = alloca ptr, align 8
  %5 = alloca ptr, align 8
  %6 = alloca ptr, align 8
  %7 = alloca i32, align 4
  %8 = alloca %struct.slurm_msg, align 8
  store ptr %0, ptr %4, align 8
  store ptr %1, ptr %5, align 8
  store ptr %2, ptr %6, align 8
  call void @llvm.lifetime.start.p0(i64 4, ptr %7) #12
  call void @llvm.lifetime.start.p0(i64 424, ptr %8) #12
  %9 = load ptr, ptr %4, align 8
  %10 = load ptr, ptr %6, align 8
  %11 = call i32 @slurm_send_recv_controller_msg(ptr noundef %9, ptr noundef %8, ptr noundef %10)
  %12 = icmp ne i32 %11, 0
  br i1 %12, label %27, label %13

13:                                               ; preds = %3
  %14 = getelementptr inbounds nuw %struct.slurm_msg, ptr %8, i32 0, i32 16
  %15 = load i16, ptr %14, align 4
  %16 = zext i16 %15 to i32
  %17 = getelementptr inbounds nuw %struct.slurm_msg, ptr %8, i32 0, i32 13
  %18 = load ptr, ptr %17, align 8
  %19 = call i32 @slurm_get_return_code(i32 noundef %16, ptr noundef %18)
  %20 = load ptr, ptr %5, align 8
  store i32 %19, ptr %20, align 4
  %21 = getelementptr inbounds nuw %struct.slurm_msg, ptr %8, i32 0, i32 16
  %22 = load i16, ptr %21, align 4
  %23 = zext i16 %22 to i32
  %24 = getelementptr inbounds nuw %struct.slurm_msg, ptr %8, i32 0, i32 13
  %25 = load ptr, ptr %24, align 8
  %26 = call i32 @slurm_free_msg_data(i32 noundef %23, ptr noundef %25)
  store i32 0, ptr %7, align 4
  br label %28

27:                                               ; preds = %3
  store i32 -1, ptr %7, align 4
  br label %28

28:                                               ; preds = %27, %13
  %29 = load i32, ptr %7, align 4
  call void @llvm.lifetime.end.p0(i64 424, ptr %8) #12
  call void @llvm.lifetime.end.p0(i64 4, ptr %7) #12
  ret i32 %29
}