; Function Attrs: nounwind uwtable
define dso_local range(i32 -1, 1) i32 @slurm_send_recv_controller_rc_msg(ptr noundef %0, ptr noundef writeonly captures(none) %1, ptr noundef %2) local_unnamed_addr #1 {
  %4 = alloca %struct.slurm_msg, align 8
  call void @llvm.lifetime.start.p0(i64 424, ptr nonnull %4) #19
  %5 = call i32 @slurm_send_recv_controller_msg(ptr noundef %0, ptr noundef nonnull %4, ptr noundef %2)
  %.not = icmp eq i32 %5, 0
  br i1 %.not, label %6, label %17

6:                                                ; preds = %3
  %7 = getelementptr inbounds nuw i8, ptr %4, i64 212
  %8 = load i16, ptr %7, align 4
  %9 = zext i16 %8 to i32
  %10 = getelementptr inbounds nuw i8, ptr %4, i64 200
  %11 = load ptr, ptr %10, align 8
  %12 = call i32 @slurm_get_return_code(i32 noundef %9, ptr noundef %11) #19
  store i32 %12, ptr %1, align 4
  %13 = load i16, ptr %7, align 4
  %14 = zext i16 %13 to i32
  %15 = load ptr, ptr %10, align 8
  %16 = call i32 @slurm_free_msg_data(i32 noundef %14, ptr noundef %15) #19
  br label %17

17:                                               ; preds = %3, %6
  %.0 = phi i32 [ 0, %6 ], [ -1, %3 ]
  call void @llvm.lifetime.end.p0(i64 424, ptr nonnull %4) #19
  ret i32 %.0
}